; Function Attrs: mustprogress nofree nounwind willreturn memory(read, inaccessiblemem: none) uwtable
define dso_local noundef i32 @_ZN4llvm6AMDGPU13parseArchR600ENS_9StringRefE(ptr nocapture readonly %0, i64 %1) local_unnamed_addr #2 {
  %.fr18 = freeze i64 %1
  %3 = icmp eq i64 %.fr18, 0
  br i1 %3, label %.split.us, label %.split

.split.us:                                        ; preds = %2, %_ZN4llvmeqENS_9StringRefES0_.exit.thread12.us
  %.010.idx15.us = phi i64 [ %.010.add.us, %_ZN4llvmeqENS_9StringRefES0_.exit.thread12.us ], [ 0, %2 ]
  %gep = getelementptr inbounds i8, ptr getelementptr inbounds (i8, ptr @_ZN12_GLOBAL__N_18R600GPUsE, i64 8), i64 %.010.idx15.us
  %.sroa.2.0.copyload.us = load i64, ptr %gep, align 8
  %.not.i.us = icmp eq i64 %.sroa.2.0.copyload.us, 0
  br i1 %.not.i.us, label %_ZN4llvmeqENS_9StringRefES0_.exit.thread, label %_ZN4llvmeqENS_9StringRefES0_.exit.thread12.us

_ZN4llvmeqENS_9StringRefES0_.exit.thread12.us:    ; preds = %.split.us
  %.010.add.us = add nuw nsw i64 %.010.idx15.us, 40
  %.not.us = icmp eq i64 %.010.add.us, 1040
  br i1 %.not.us, label %.loopexit, label %.split.us

.split:                                           ; preds = %2, %_ZN4llvmeqENS_9StringRefES0_.exit.thread12
  %.010.idx15 = phi i64 [ %.010.add, %_ZN4llvmeqENS_9StringRefES0_.exit.thread12 ], [ 0, %2 ]
  %.010.ptr16 = getelementptr inbounds i8, ptr @_ZN12_GLOBAL__N_18R600GPUsE, i64 %.010.idx15
  %.sroa.2.0..sroa_idx = getelementptr inbounds i8, ptr %.010.ptr16, i64 8
  %.sroa.2.0.copyload = load i64, ptr %.sroa.2.0..sroa_idx, align 8
  %.not.i = icmp eq i64 %.fr18, %.sroa.2.0.copyload
  br i1 %.not.i, label %_ZN4llvmeqENS_9StringRefES0_.exit, label %_ZN4llvmeqENS_9StringRefES0_.exit.thread12

_ZN4llvmeqENS_9StringRefES0_.exit:                ; preds = %.split
  %.sroa.0.0.copyload = load ptr, ptr %.010.ptr16, align 8
  %bcmp.i = tail call i32 @bcmp(ptr %0, ptr %.sroa.0.0.copyload, i64 %.fr18)
  %4 = icmp eq i32 %bcmp.i, 0
  br i1 %4, label %_ZN4llvmeqENS_9StringRefES0_.exit.thread, label %_ZN4llvmeqENS_9StringRefES0_.exit.thread12

_ZN4llvmeqENS_9StringRefES0_.exit.thread:         ; preds = %_ZN4llvmeqENS_9StringRefES0_.exit, %.split.us
  %5 = phi i64 [ %.010.idx15.us, %.split.us ], [ %.010.idx15, %_ZN4llvmeqENS_9StringRefES0_.exit ]
  %6 = getelementptr inbounds i8, ptr @_ZN12_GLOBAL__N_18R600GPUsE, i64 %5
  %7 = getelementptr inbounds nuw i8, ptr %6, i64 32
  %8 = load i32, ptr %7, align 8
  br label %.loopexit

_ZN4llvmeqENS_9StringRefES0_.exit.thread12:       ; preds = %.split, %_ZN4llvmeqENS_9StringRefES0_.exit
  %.010.add = add nuw nsw i64 %.010.idx15, 40
  %.not = icmp eq i64 %.010.add, 1040
  br i1 %.not, label %.loopexit, label %.split

.loopexit:                                        ; preds = %_ZN4llvmeqENS_9StringRefES0_.exit.thread12, %_ZN4llvmeqENS_9StringRefES0_.exit.thread12.us, %_ZN4llvmeqENS_9StringRefES0_.exit.thread
  %.0 = phi i32 [ %8, %_ZN4llvmeqENS_9StringRefES0_.exit.thread ], [ 0, %_ZN4llvmeqENS_9StringRefES0_.exit.thread12.us ], [ 0, %_ZN4llvmeqENS_9StringRefES0_.exit.thread12 ]
  ret i32 %.0
}